; Function Attrs: mustprogress uwtable
define noundef nonnull align 8 dereferenceable(96) ptr @_ZN2cv15ImageCollection4Impl2atEi(ptr noundef nonnull align 8 dereferenceable(104) %0, i32 noundef %1) local_unnamed_addr #4 align 2 personality ptr @__gxx_personality_v0 {
  %3 = alloca %"class.std::__cxx11::basic_string", align 8
  %4 = alloca %"class.std::allocator", align 1
  %5 = icmp sgt i32 %1, -1
  %6 = zext nneg i32 %1 to i64
  %7 = getelementptr inbounds nuw i8, ptr %0, i64 40
  %8 = load i64, ptr %7, align 8
  %9 = icmp ugt i64 %8, %6
  %or.cond = select i1 %5, i1 %9, i1 false
  br i1 %or.cond, label %20, label %10

10:                                               ; preds = %2
  call void @llvm.lifetime.start.p0(i64 32, ptr nonnull %3) #30
  call void @llvm.lifetime.start.p0(i64 1, ptr nonnull %4) #30
  call void @_ZNSt7__cxx1112basic_stringIcSt11char_traitsIcESaIcEEC2EPKcRKS3_(ptr noundef nonnull align 8 dereferenceable(32) %3, ptr noundef nonnull @.str.49, ptr noundef nonnull align 1 dereferenceable(1) %4)
  invoke void @_ZN2cv5errorEiRKNSt7__cxx1112basic_stringIcSt11char_traitsIcESaIcEEEPKcS9_i(i32 noundef -215, ptr noundef nonnull align 8 dereferenceable(32) %3, ptr noundef nonnull @__func__._ZN2cv15ImageCollection4Impl2atEi, ptr noundef nonnull @.str.9, i32 noundef 1568) #33
          to label %11 unwind label %12

11:                                               ; preds = %10
  unreachable

12:                                               ; preds = %10
  %13 = landingpad { ptr, i32 }
          cleanup
  %14 = load ptr, ptr %3, align 8, !tbaa !32
  %15 = getelementptr inbounds nuw i8, ptr %3, i64 16
  %16 = icmp eq ptr %14, %15
  br i1 %16, label %_ZNKSt7__cxx1112basic_stringIcSt11char_traitsIcESaIcEE11_M_is_localEv.exit.thread.i.i, label %_ZNKSt7__cxx1112basic_stringIcSt11char_traitsIcESaIcEE11_M_is_localEv.exit.i.i

_ZNKSt7__cxx1112basic_stringIcSt11char_traitsIcESaIcEE11_M_is_localEv.exit.thread.i.i: ; preds = %12
  %17 = getelementptr inbounds nuw i8, ptr %3, i64 8
  %18 = load i64, ptr %17, align 8, !tbaa !36
  %19 = icmp ult i64 %18, 16
  call void @llvm.assume(i1 %19)
  br label %_ZNSt7__cxx1112basic_stringIcSt11char_traitsIcESaIcEED2Ev.exit

_ZNKSt7__cxx1112basic_stringIcSt11char_traitsIcESaIcEE11_M_is_localEv.exit.i.i: ; preds = %12
  call void @_ZdlPv(ptr noundef %14) #32
  br label %_ZNSt7__cxx1112basic_stringIcSt11char_traitsIcESaIcEED2Ev.exit

_ZNSt7__cxx1112basic_stringIcSt11char_traitsIcESaIcEED2Ev.exit: ; preds = %_ZNKSt7__cxx1112basic_stringIcSt11char_traitsIcESaIcEE11_M_is_localEv.exit.i.i, %_ZNKSt7__cxx1112basic_stringIcSt11char_traitsIcESaIcEE11_M_is_localEv.exit.thread.i.i
  call void @llvm.lifetime.end.p0(i64 1, ptr nonnull %4) #30
  call void @llvm.lifetime.end.p0(i64 32, ptr nonnull %3) #30
  resume { ptr, i32 } %13

20:                                               ; preds = %2
  %21 = tail call noundef nonnull align 8 dereferenceable(96) ptr @_ZN2cv15ImageCollection4ImplixEi(ptr noundef nonnull align 8 dereferenceable(104) %0, i32 noundef %1)
  ret ptr %21
}